target datalayout = "e-m:e-p270:32:32-p271:32:32-p272:64:64-i64:64-i128:128-f80:128-n8:16:32:64-S128"
target triple = "x86_64-pc-linux-gnu"

; Function Attrs: inlinehint nounwind uwtable
define internal i32 @check_avx2() #1 {
  %1 = alloca i32, align 4
  %2 = alloca i32, align 4
  %3 = alloca i32, align 4
  %4 = alloca i32, align 4
  %5 = alloca i32, align 4
  %6 = alloca i32, align 4
  %7 = alloca i64, align 8
  call void @llvm.lifetime.start.p0(i64 4, ptr %2) #4
  call void @llvm.lifetime.start.p0(i64 4, ptr %3) #4
  call void @llvm.lifetime.start.p0(i64 4, ptr %4) #4
  call void @llvm.lifetime.start.p0(i64 4, ptr %5) #4
  call void @cpuid(i32 noundef 1, i32 noundef 0, ptr noundef %2, ptr noundef %3, ptr noundef %4, ptr noundef %5)
  %8 = load i32, ptr %4, align 4
  %9 = and i32 %8, 402653184
  %10 = icmp ne i32 %9, 402653184
  br i1 %10, label %11, label %15

11:                                               ; preds = %0
  br label %12

12:                                               ; preds = %11
  br label %13

13:                                               ; preds = %12
  br label %14

14:                                               ; preds = %13
  store i32 0, ptr %1, align 4
  store i32 1, ptr %6, align 4
  br label %34

15:                                               ; preds = %0
  call void @llvm.lifetime.start.p0(i64 8, ptr %7) #4
  %16 = call i64 @xgetbv(i32 noundef 0)
  store i64 %16, ptr %7, align 8
  %17 = load i64, ptr %7, align 8
  %18 = and i64 %17, 6
  %19 = icmp ne i64 %18, 6
  br i1 %19, label %20, label %24

20:                                               ; preds = %15
  br label %21

21:                                               ; preds = %20
  br label %22

22:                                               ; preds = %21
  br label %23

23:                                               ; preds = %22
  store i32 0, ptr %1, align 4
  store i32 1, ptr %6, align 4
  br label %33

24:                                               ; preds = %15
  store i32 0, ptr %4, align 4
  call void @cpuid(i32 noundef 7, i32 noundef 0, ptr noundef %2, ptr noundef %3, ptr noundef %4, ptr noundef %5)
  %25 = load i32, ptr %3, align 4
  %26 = and i32 %25, 32
  %27 = icmp ne i32 %26, 0
  br i1 %27, label %28, label %32

28:                                               ; preds = %24
  br label %29

29:                                               ; preds = %28
  br label %30

30:                                               ; preds = %29
  br label %31

31:                                               ; preds = %30
  store i32 1, ptr %1, align 4
  store i32 1, ptr %6, align 4
  br label %33

32:                                               ; preds = %24
  store i32 0, ptr %1, align 4
  store i32 1, ptr %6, align 4
  br label %33

33:                                               ; preds = %32, %31, %23
  call void @llvm.lifetime.end.p0(i64 8, ptr %7) #4
  br label %34

34:                                               ; preds = %33, %14
  call void @llvm.lifetime.end.p0(i64 4, ptr %5) #4
  call void @llvm.lifetime.end.p0(i64 4, ptr %4) #4
  call void @llvm.lifetime.end.p0(i64 4, ptr %3) #4
  call void @llvm.lifetime.end.p0(i64 4, ptr %2) #4
  %35 = load i32, ptr %1, align 4
  ret i32 %35
}