; Function Attrs: inlinehint nounwind uwtable
define internal fastcc range(i32 0, 2) i32 @check_avx2() unnamed_addr #1 {
  %1 = alloca i32, align 4
  %2 = alloca i32, align 4
  %3 = alloca i32, align 4
  %4 = alloca i32, align 4
  call void @llvm.lifetime.start.p0(i64 4, ptr nonnull %1) #4
  call void @llvm.lifetime.start.p0(i64 4, ptr nonnull %2) #4
  call void @llvm.lifetime.start.p0(i64 4, ptr nonnull %3) #4
  call void @llvm.lifetime.start.p0(i64 4, ptr nonnull %4) #4
  call fastcc void @cpuid(i32 noundef 1, ptr noundef %1, ptr noundef %2, ptr noundef %3, ptr noundef %4)
  %5 = load i32, ptr %3, align 4
  %6 = and i32 %5, 402653184
  %.not = icmp eq i32 %6, 402653184
  br i1 %.not, label %7, label %13

7:                                                ; preds = %0
  %8 = call fastcc i64 @xgetbv()
  %9 = and i64 %8, 6
  %.not2 = icmp eq i64 %9, 6
  br i1 %.not2, label %10, label %13

10:                                               ; preds = %7
  store i32 0, ptr %3, align 4
  call fastcc void @cpuid(i32 noundef 7, ptr noundef %1, ptr noundef %2, ptr noundef %3, ptr noundef %4)
  %11 = load i32, ptr %2, align 4
  %12 = lshr i32 %11, 5
  %.lobit = and i32 %12, 1
  br label %13

13:                                               ; preds = %7, %10, %0
  %.0 = phi i32 [ 0, %0 ], [ 0, %7 ], [ %.lobit, %10 ]
  call void @llvm.lifetime.end.p0(i64 4, ptr nonnull %4) #4
  call void @llvm.lifetime.end.p0(i64 4, ptr nonnull %3) #4
  call void @llvm.lifetime.end.p0(i64 4, ptr nonnull %2) #4
  call void @llvm.lifetime.end.p0(i64 4, ptr nonnull %1) #4
  ret i32 %.0
}